; Function Attrs: mustprogress uwtable
define noundef zeroext i1 @_ZN5arrow8internal19IsNullRunEndEncodedERKNS_9ArrayDataEl(ptr noundef nonnull readonly align 8 captures(none) dereferenceable(120) %0, i64 noundef %1) local_unnamed_addr #0 personality ptr @__gxx_personality_v0 {
  %3 = alloca %"struct.arrow::ArraySpan", align 8
  call void @llvm.lifetime.start.p0(i64 128, ptr nonnull %3) #24
  %4 = getelementptr inbounds nuw i8, ptr %3, i64 16
  call void @llvm.memset.p0.i64(ptr noundef nonnull align 8 dereferenceable(128) %3, i8 0, i64 16, i1 false)
  store i64 -1, ptr %4, align 8, !tbaa !57
  %5 = getelementptr inbounds nuw i8, ptr %3, i64 24
  call void @llvm.memset.p0.i64(ptr noundef nonnull align 8 dereferenceable(104) %5, i8 0, i64 104, i1 false)
  invoke void @_ZN5arrow9ArraySpan10SetMembersERKNS_9ArrayDataE(ptr noundef nonnull align 8 dereferenceable(128) %3, ptr noundef nonnull align 8 dereferenceable(120) %0)
          to label %_ZN5arrow9ArraySpanC2ERKNS_9ArrayDataE.exit unwind label %6

common.resume:                                    ; preds = %33, %6
  %common.resume.op = phi { ptr, i32 } [ %7, %6 ], [ %34, %33 ]
  resume { ptr, i32 } %common.resume.op

6:                                                ; preds = %2
  %7 = landingpad { ptr, i32 }
          cleanup
  %8 = getelementptr inbounds nuw i8, ptr %3, i64 104
  call void @_ZNSt6vectorIN5arrow9ArraySpanESaIS1_EED2Ev(ptr noundef nonnull align 8 dereferenceable(24) %8) #24
  br label %common.resume

_ZN5arrow9ArraySpanC2ERKNS_9ArrayDataE.exit:      ; preds = %2
  %9 = getelementptr inbounds nuw i8, ptr %3, i64 104
  %10 = load ptr, ptr %9, align 8, !tbaa !64
  %11 = getelementptr inbounds nuw i8, ptr %10, i64 128
  %12 = invoke noundef zeroext i1 @_ZNK5arrow9ArraySpan19MayHaveLogicalNullsEv(ptr noundef nonnull align 8 dereferenceable(128) %11)
          to label %.noexc unwind label %33

.noexc:                                           ; preds = %_ZN5arrow9ArraySpanC2ERKNS_9ArrayDataE.exit
  br i1 %12, label %13, label %_ZNK5arrow9ArraySpan19IsNullRunEndEncodedEl.exit

13:                                               ; preds = %.noexc
  %14 = load i64, ptr %5, align 8, !tbaa !65
  %15 = invoke noundef i64 @_ZN5arrow8ree_util17FindPhysicalIndexERKNS_9ArraySpanEll(ptr noundef nonnull align 8 dereferenceable(128) %3, i64 noundef %1, i64 noundef %14)
          to label %.noexc3 unwind label %33

.noexc3:                                          ; preds = %13
  %16 = load ptr, ptr %9, align 8, !tbaa !64
  %17 = getelementptr inbounds nuw i8, ptr %16, i64 128
  %18 = invoke noundef zeroext i1 @_ZNK5arrow9ArraySpan7IsValidEl(ptr noundef nonnull align 8 dereferenceable(128) %17, i64 noundef %15) #25
          to label %.noexc4 unwind label %33

.noexc4:                                          ; preds = %.noexc3
  %19 = xor i1 %18, true
  br label %_ZNK5arrow9ArraySpan19IsNullRunEndEncodedEl.exit

_ZNK5arrow9ArraySpan19IsNullRunEndEncodedEl.exit: ; preds = %.noexc4, %.noexc
  %.0.i = phi i1 [ %19, %.noexc4 ], [ false, %.noexc ]
  %20 = load ptr, ptr %9, align 8, !tbaa !64
  %21 = getelementptr inbounds nuw i8, ptr %3, i64 112
  %22 = load ptr, ptr %21, align 8, !tbaa !66
  invoke void @_ZNSt12_Destroy_auxILb0EE9__destroyIPN5arrow9ArraySpanEEEvT_S5_(ptr noundef %20, ptr noundef %22)
          to label %_ZNSt6vectorIN5arrow9ArraySpanESaIS1_EED2Ev.exit.i unwind label %23

23:                                               ; preds = %_ZNK5arrow9ArraySpan19IsNullRunEndEncodedEl.exit
  %24 = landingpad { ptr, i32 }
          catch ptr null
  %25 = extractvalue { ptr, i32 } %24, 0
  call void @__clang_call_terminate(ptr %25) #26
  unreachable

_ZNSt6vectorIN5arrow9ArraySpanESaIS1_EED2Ev.exit.i: ; preds = %_ZNK5arrow9ArraySpan19IsNullRunEndEncodedEl.exit
  %26 = load ptr, ptr %9, align 8, !tbaa !64
  %.not.i.i.i = icmp eq ptr %26, null
  br i1 %.not.i.i.i, label %_ZN5arrow9ArraySpanD2Ev.exit, label %27

27:                                               ; preds = %_ZNSt6vectorIN5arrow9ArraySpanESaIS1_EED2Ev.exit.i
  %28 = getelementptr inbounds nuw i8, ptr %3, i64 120
  %29 = load ptr, ptr %28, align 8, !tbaa !67
  %30 = ptrtoint ptr %29 to i64
  %31 = ptrtoint ptr %26 to i64
  %32 = sub i64 %30, %31
  call void @_ZdlPvm(ptr noundef nonnull %26, i64 noundef %32) #27
  br label %_ZN5arrow9ArraySpanD2Ev.exit

_ZN5arrow9ArraySpanD2Ev.exit:                     ; preds = %_ZNSt6vectorIN5arrow9ArraySpanESaIS1_EED2Ev.exit.i, %27
  call void @llvm.lifetime.end.p0(i64 128, ptr nonnull %3) #24
  ret i1 %.0.i

33:                                               ; preds = %.noexc3, %13, %_ZN5arrow9ArraySpanC2ERKNS_9ArrayDataE.exit
  %34 = landingpad { ptr, i32 }
          cleanup
  call void @_ZN5arrow9ArraySpanD2Ev(ptr noundef nonnull align 8 dereferenceable(128) %3) #24
  call void @llvm.lifetime.end.p0(i64 128, ptr nonnull %3) #24
  br label %common.resume
}